target datalayout = "e-m:e-p270:32:32-p271:32:32-p272:64:64-i64:64-i128:128-f80:128-n8:16:32:64-S128"
target triple = "x86_64-pc-linux-gnu"

@hf_mpeg_descr_cable_delivery_frequency = internal global i32 0, align 4
@hf_mpeg_descr_cable_delivery_reserved = internal global i32 0, align 4
@hf_mpeg_descr_cable_delivery_fec_outer = internal global i32 0, align 4
@hf_mpeg_descr_cable_delivery_modulation = internal global i32 0, align 4
@hf_mpeg_descr_cable_delivery_symbol_rate = internal global i32 0, align 4
@hf_mpeg_descr_cable_delivery_fec_inner = internal global i32 0, align 4
@.str.749 = private unnamed_addr constant [10 x i8] c"%4.4f MHz\00", align 1
@.str.750 = private unnamed_addr constant [16 x i8] c"%3.4f MSymbol/s\00", align 1

; Function Attrs: null_pointer_is_valid sspstrong uwtable
define internal void @proto_mpeg_descriptor_dissect_cable_delivery(ptr noundef %0, i32 noundef %1, ptr noundef %2) #1 {
  %4 = alloca ptr, align 8
  %5 = alloca i32, align 4
  %6 = alloca ptr, align 8
  %7 = alloca double, align 8
  %8 = alloca double, align 8
  store ptr %0, ptr %4, align 8
  store i32 %1, ptr %5, align 4
  store ptr %2, ptr %6, align 8
  call void @llvm.lifetime.start.p0(i64 8, ptr %7) #4
  call void @llvm.lifetime.start.p0(i64 8, ptr %8) #4
  %9 = load ptr, ptr %4, align 8
  %10 = load i32, ptr %5, align 4
  %11 = call zeroext i8 @tvb_get_uint8(ptr noundef %9, i32 noundef %10)
  %12 = zext i8 %11 to i32
  %13 = and i32 %12, 240
  %14 = ashr i32 %13, 4
  %15 = mul i32 %14, 10
  %16 = load ptr, ptr %4, align 8
  %17 = load i32, ptr %5, align 4
  %18 = call zeroext i8 @tvb_get_uint8(ptr noundef %16, i32 noundef %17)
  %19 = zext i8 %18 to i32
  %20 = and i32 %19, 15
  %21 = add i32 %15, %20
  %22 = sitofp i32 %21 to double
  %23 = load ptr, ptr %4, align 8
  %24 = load i32, ptr %5, align 4
  %25 = add i32 %24, 1
  %26 = call zeroext i8 @tvb_get_uint8(ptr noundef %23, i32 noundef %25)
  %27 = zext i8 %26 to i32
  %28 = and i32 %27, 240
  %29 = ashr i32 %28, 4
  %30 = mul i32 %29, 10
  %31 = load ptr, ptr %4, align 8
  %32 = load i32, ptr %5, align 4
  %33 = add i32 %32, 1
  %34 = call zeroext i8 @tvb_get_uint8(ptr noundef %31, i32 noundef %33)
  %35 = zext i8 %34 to i32
  %36 = and i32 %35, 15
  %37 = add i32 %30, %36
  %38 = sitofp i32 %37 to double
  %39 = call double @llvm.fmuladd.f64(double %22, double 1.000000e+02, double %38)
  %40 = load ptr, ptr %4, align 8
  %41 = load i32, ptr %5, align 4
  %42 = add i32 %41, 2
  %43 = call zeroext i8 @tvb_get_uint8(ptr noundef %40, i32 noundef %42)
  %44 = zext i8 %43 to i32
  %45 = and i32 %44, 240
  %46 = ashr i32 %45, 4
  %47 = mul i32 %46, 10
  %48 = load ptr, ptr %4, align 8
  %49 = load i32, ptr %5, align 4
  %50 = add i32 %49, 2
  %51 = call zeroext i8 @tvb_get_uint8(ptr noundef %48, i32 noundef %50)
  %52 = zext i8 %51 to i32
  %53 = and i32 %52, 15
  %54 = add i32 %47, %53
  %55 = sitofp i32 %54 to double
  %56 = fdiv double %55, 1.000000e+02
  %57 = fadd double %39, %56
  %58 = load ptr, ptr %4, align 8
  %59 = load i32, ptr %5, align 4
  %60 = add i32 %59, 3
  %61 = call zeroext i8 @tvb_get_uint8(ptr noundef %58, i32 noundef %60)
  %62 = zext i8 %61 to i32
  %63 = and i32 %62, 240
  %64 = ashr i32 %63, 4
  %65 = mul i32 %64, 10
  %66 = load ptr, ptr %4, align 8
  %67 = load i32, ptr %5, align 4
  %68 = add i32 %67, 3
  %69 = call zeroext i8 @tvb_get_uint8(ptr noundef %66, i32 noundef %68)
  %70 = zext i8 %69 to i32
  %71 = and i32 %70, 15
  %72 = add i32 %65, %71
  %73 = sitofp i32 %72 to double
  %74 = fdiv double %73, 1.000000e+04
  %75 = fadd double %57, %74
  store double %75, ptr %7, align 8
  %76 = load ptr, ptr %6, align 8
  %77 = load i32, ptr @hf_mpeg_descr_cable_delivery_frequency, align 4
  %78 = load ptr, ptr %4, align 8
  %79 = load i32, ptr %5, align 4
  %80 = load double, ptr %7, align 8
  %81 = load double, ptr %7, align 8
  %82 = call ptr (ptr, i32, ptr, i32, i32, double, ptr, ...) @proto_tree_add_double_format_value(ptr noundef %76, i32 noundef %77, ptr noundef %78, i32 noundef %79, i32 noundef 4, double noundef %80, ptr noundef @.str.749, double noundef %81)
  %83 = load i32, ptr %5, align 4
  %84 = add i32 %83, 4
  store i32 %84, ptr %5, align 4
  %85 = load ptr, ptr %6, align 8
  %86 = load i32, ptr @hf_mpeg_descr_cable_delivery_reserved, align 4
  %87 = load ptr, ptr %4, align 8
  %88 = load i32, ptr %5, align 4
  %89 = call ptr @proto_tree_add_item(ptr noundef %85, i32 noundef %86, ptr noundef %87, i32 noundef %88, i32 noundef 2, i32 noundef 0)
  %90 = load ptr, ptr %6, align 8
  %91 = load i32, ptr @hf_mpeg_descr_cable_delivery_fec_outer, align 4
  %92 = load ptr, ptr %4, align 8
  %93 = load i32, ptr %5, align 4
  %94 = call ptr @proto_tree_add_item(ptr noundef %90, i32 noundef %91, ptr noundef %92, i32 noundef %93, i32 noundef 2, i32 noundef 0)
  %95 = load i32, ptr %5, align 4
  %96 = add i32 %95, 2
  store i32 %96, ptr %5, align 4
  %97 = load ptr, ptr %6, align 8
  %98 = load i32, ptr @hf_mpeg_descr_cable_delivery_modulation, align 4
  %99 = load ptr, ptr %4, align 8
  %100 = load i32, ptr %5, align 4
  %101 = call ptr @proto_tree_add_item(ptr noundef %97, i32 noundef %98, ptr noundef %99, i32 noundef %100, i32 noundef 1, i32 noundef 0)
  %102 = load i32, ptr %5, align 4
  %103 = add i32 %102, 1
  store i32 %103, ptr %5, align 4
  %104 = load ptr, ptr %4, align 8
  %105 = load i32, ptr %5, align 4
  %106 = call zeroext i8 @tvb_get_uint8(ptr noundef %104, i32 noundef %105)
  %107 = zext i8 %106 to i32
  %108 = and i32 %107, 240
  %109 = ashr i32 %108, 4
  %110 = mul i32 %109, 10
  %111 = load ptr, ptr %4, align 8
  %112 = load i32, ptr %5, align 4
  %113 = call zeroext i8 @tvb_get_uint8(ptr noundef %111, i32 noundef %112)
  %114 = zext i8 %113 to i32
  %115 = and i32 %114, 15
  %116 = add i32 %110, %115
  %117 = sitofp i32 %116 to double
  %118 = load ptr, ptr %4, align 8
  %119 = load i32, ptr %5, align 4
  %120 = add i32 %119, 1
  %121 = call zeroext i8 @tvb_get_uint8(ptr noundef %118, i32 noundef %120)
  %122 = zext i8 %121 to i32
  %123 = and i32 %122, 240
  %124 = ashr i32 %123, 4
  %125 = mul i32 %124, 10
  %126 = load ptr, ptr %4, align 8
  %127 = load i32, ptr %5, align 4
  %128 = add i32 %127, 1
  %129 = call zeroext i8 @tvb_get_uint8(ptr noundef %126, i32 noundef %128)
  %130 = zext i8 %129 to i32
  %131 = and i32 %130, 15
  %132 = add i32 %125, %131
  %133 = sitofp i32 %132 to double
  %134 = fdiv double %133, 1.000000e+01
  %135 = call double @llvm.fmuladd.f64(double %117, double 1.000000e+01, double %134)
  %136 = load ptr, ptr %4, align 8
  %137 = load i32, ptr %5, align 4
  %138 = add i32 %137, 2
  %139 = call zeroext i8 @tvb_get_uint8(ptr noundef %136, i32 noundef %138)
  %140 = zext i8 %139 to i32
  %141 = and i32 %140, 240
  %142 = ashr i32 %141, 4
  %143 = mul i32 %142, 10
  %144 = load ptr, ptr %4, align 8
  %145 = load i32, ptr %5, align 4
  %146 = add i32 %145, 2
  %147 = call zeroext i8 @tvb_get_uint8(ptr noundef %144, i32 noundef %146)
  %148 = zext i8 %147 to i32
  %149 = and i32 %148, 15
  %150 = add i32 %143, %149
  %151 = sitofp i32 %150 to double
  %152 = fdiv double %151, 1.000000e+03
  %153 = fadd double %135, %152
  %154 = load ptr, ptr %4, align 8
  %155 = load i32, ptr %5, align 4
  %156 = add i32 %155, 3
  %157 = call zeroext i8 @tvb_get_uint8(ptr noundef %154, i32 noundef %156)
  %158 = zext i8 %157 to i32
  %159 = ashr i32 %158, 4
  %160 = and i32 %159, 240
  %161 = ashr i32 %160, 4
  %162 = mul i32 %161, 10
  %163 = load ptr, ptr %4, align 8
  %164 = load i32, ptr %5, align 4
  %165 = add i32 %164, 3
  %166 = call zeroext i8 @tvb_get_uint8(ptr noundef %163, i32 noundef %165)
  %167 = zext i8 %166 to i32
  %168 = ashr i32 %167, 4
  %169 = and i32 %168, 15
  %170 = add i32 %162, %169
  %171 = sitofp i32 %170 to double
  %172 = fdiv double %171, 1.000000e+04
  %173 = fadd double %153, %172
  store double %173, ptr %8, align 8
  %174 = load ptr, ptr %6, align 8
  %175 = load i32, ptr @hf_mpeg_descr_cable_delivery_symbol_rate, align 4
  %176 = load ptr, ptr %4, align 8
  %177 = load i32, ptr %5, align 4
  %178 = load double, ptr %8, align 8
  %179 = load double, ptr %8, align 8
  %180 = call ptr (ptr, i32, ptr, i32, i32, double, ptr, ...) @proto_tree_add_double_format_value(ptr noundef %174, i32 noundef %175, ptr noundef %176, i32 noundef %177, i32 noundef 4, double noundef %178, ptr noundef @.str.750, double noundef %179)
  %181 = load i32, ptr %5, align 4
  %182 = add i32 %181, 3
  store i32 %182, ptr %5, align 4
  %183 = load ptr, ptr %6, align 8
  %184 = load i32, ptr @hf_mpeg_descr_cable_delivery_fec_inner, align 4
  %185 = load ptr, ptr %4, align 8
  %186 = load i32, ptr %5, align 4
  %187 = call ptr @proto_tree_add_item(ptr noundef %183, i32 noundef %184, ptr noundef %185, i32 noundef %186, i32 noundef 1, i32 noundef 0)
  call void @llvm.lifetime.end.p0(i64 8, ptr %8) #4
  call void @llvm.lifetime.end.p0(i64 8, ptr %7) #4
  ret void
}