; Function Attrs: null_pointer_is_valid sspstrong uwtable
define internal fastcc void @proto_mpeg_descriptor_dissect_cable_delivery(ptr noundef %0, i32 noundef %1, ptr noundef %2) unnamed_addr #1 {
  %4 = tail call zeroext i8 @tvb_get_uint8(ptr noundef %0, i32 noundef %1)
  %5 = lshr i8 %4, 4
  %narrow = mul nuw i8 %5, 10
  %6 = zext i8 %narrow to i32
  %7 = tail call zeroext i8 @tvb_get_uint8(ptr noundef %0, i32 noundef %1)
  %8 = and i8 %7, 15
  %9 = zext nneg i8 %8 to i32
  %10 = add nuw nsw i32 %6, %9
  %11 = uitofp nneg i32 %10 to double
  %12 = add i32 %1, 1
  %13 = tail call zeroext i8 @tvb_get_uint8(ptr noundef %0, i32 noundef %12)
  %14 = lshr i8 %13, 4
  %narrow57 = mul nuw i8 %14, 10
  %15 = zext i8 %narrow57 to i32
  %16 = tail call zeroext i8 @tvb_get_uint8(ptr noundef %0, i32 noundef %12)
  %17 = and i8 %16, 15
  %18 = zext nneg i8 %17 to i32
  %19 = add nuw nsw i32 %15, %18
  %20 = uitofp nneg i32 %19 to double
  %21 = tail call double @llvm.fmuladd.f64(double %11, double 1.000000e+02, double %20)
  %22 = add i32 %1, 2
  %23 = tail call zeroext i8 @tvb_get_uint8(ptr noundef %0, i32 noundef %22)
  %24 = lshr i8 %23, 4
  %narrow58 = mul nuw i8 %24, 10
  %25 = zext i8 %narrow58 to i32
  %26 = tail call zeroext i8 @tvb_get_uint8(ptr noundef %0, i32 noundef %22)
  %27 = and i8 %26, 15
  %28 = zext nneg i8 %27 to i32
  %29 = add nuw nsw i32 %25, %28
  %30 = uitofp nneg i32 %29 to double
  %31 = fdiv double %30, 1.000000e+02
  %32 = fadd double %21, %31
  %33 = add i32 %1, 3
  %34 = tail call zeroext i8 @tvb_get_uint8(ptr noundef %0, i32 noundef %33)
  %35 = lshr i8 %34, 4
  %narrow59 = mul nuw i8 %35, 10
  %36 = zext i8 %narrow59 to i32
  %37 = tail call zeroext i8 @tvb_get_uint8(ptr noundef %0, i32 noundef %33)
  %38 = and i8 %37, 15
  %39 = zext nneg i8 %38 to i32
  %40 = add nuw nsw i32 %36, %39
  %41 = uitofp nneg i32 %40 to double
  %42 = fdiv double %41, 1.000000e+04
  %43 = fadd double %32, %42
  %44 = load i32, ptr @hf_mpeg_descr_cable_delivery_frequency, align 4
  %45 = tail call ptr (ptr, i32, ptr, i32, i32, double, ptr, ...) @proto_tree_add_double_format_value(ptr noundef %2, i32 noundef %44, ptr noundef %0, i32 noundef %1, i32 noundef 4, double noundef %43, ptr noundef nonnull @.str.749, double noundef %43)
  %46 = add i32 %1, 4
  %47 = load i32, ptr @hf_mpeg_descr_cable_delivery_reserved, align 4
  %48 = tail call ptr @proto_tree_add_item(ptr noundef %2, i32 noundef %47, ptr noundef %0, i32 noundef %46, i32 noundef 2, i32 noundef 0)
  %49 = load i32, ptr @hf_mpeg_descr_cable_delivery_fec_outer, align 4
  %50 = tail call ptr @proto_tree_add_item(ptr noundef %2, i32 noundef %49, ptr noundef %0, i32 noundef %46, i32 noundef 2, i32 noundef 0)
  %51 = add i32 %1, 6
  %52 = load i32, ptr @hf_mpeg_descr_cable_delivery_modulation, align 4
  %53 = tail call ptr @proto_tree_add_item(ptr noundef %2, i32 noundef %52, ptr noundef %0, i32 noundef %51, i32 noundef 1, i32 noundef 0)
  %54 = add i32 %1, 7
  %55 = tail call zeroext i8 @tvb_get_uint8(ptr noundef %0, i32 noundef %54)
  %56 = lshr i8 %55, 4
  %narrow60 = mul nuw i8 %56, 10
  %57 = zext i8 %narrow60 to i32
  %58 = tail call zeroext i8 @tvb_get_uint8(ptr noundef %0, i32 noundef %54)
  %59 = and i8 %58, 15
  %60 = zext nneg i8 %59 to i32
  %61 = add nuw nsw i32 %57, %60
  %62 = uitofp nneg i32 %61 to double
  %63 = add i32 %1, 8
  %64 = tail call zeroext i8 @tvb_get_uint8(ptr noundef %0, i32 noundef %63)
  %65 = lshr i8 %64, 4
  %narrow61 = mul nuw i8 %65, 10
  %66 = zext i8 %narrow61 to i32
  %67 = tail call zeroext i8 @tvb_get_uint8(ptr noundef %0, i32 noundef %63)
  %68 = and i8 %67, 15
  %69 = zext nneg i8 %68 to i32
  %70 = add nuw nsw i32 %66, %69
  %71 = uitofp nneg i32 %70 to double
  %72 = fdiv double %71, 1.000000e+01
  %73 = tail call double @llvm.fmuladd.f64(double %62, double 1.000000e+01, double %72)
  %74 = add i32 %1, 9
  %75 = tail call zeroext i8 @tvb_get_uint8(ptr noundef %0, i32 noundef %74)
  %76 = lshr i8 %75, 4
  %narrow62 = mul nuw i8 %76, 10
  %77 = zext i8 %narrow62 to i32
  %78 = tail call zeroext i8 @tvb_get_uint8(ptr noundef %0, i32 noundef %74)
  %79 = and i8 %78, 15
  %80 = zext nneg i8 %79 to i32
  %81 = add nuw nsw i32 %77, %80
  %82 = uitofp nneg i32 %81 to double
  %83 = fdiv double %82, 1.000000e+03
  %84 = fadd double %73, %83
  %85 = add i32 %1, 10
  %86 = tail call zeroext i8 @tvb_get_uint8(ptr noundef %0, i32 noundef %85)
  %87 = tail call zeroext i8 @tvb_get_uint8(ptr noundef %0, i32 noundef %85)
  %88 = lshr i8 %87, 4
  %89 = uitofp nneg i8 %88 to double
  %90 = fdiv double %89, 1.000000e+04
  %91 = fadd double %90, %84
  %92 = load i32, ptr @hf_mpeg_descr_cable_delivery_symbol_rate, align 4
  %93 = tail call ptr (ptr, i32, ptr, i32, i32, double, ptr, ...) @proto_tree_add_double_format_value(ptr noundef %2, i32 noundef %92, ptr noundef %0, i32 noundef %54, i32 noundef 4, double noundef %91, ptr noundef nonnull @.str.750, double noundef %91)
  %94 = load i32, ptr @hf_mpeg_descr_cable_delivery_fec_inner, align 4
  %95 = tail call ptr @proto_tree_add_item(ptr noundef %2, i32 noundef %94, ptr noundef %0, i32 noundef %85, i32 noundef 1, i32 noundef 0)
  ret void
}